; Function Attrs: mustprogress nounwind uwtable
define dso_local noundef float @_ZNK3tev11ImageCanvas22applyExposureAndOffsetEf(ptr nocapture noundef nonnull readonly align 8 dereferenceable(376) %0, float noundef %1) local_unnamed_addr #1 align 2 {
  %3 = getelementptr inbounds i8, ptr %0, i64 172
  %4 = load float, ptr %3, align 4
  %exp2f = tail call float @exp2f(float %4) #33
  %5 = getelementptr inbounds i8, ptr %0, i64 176
  %6 = load float, ptr %5, align 8
  %7 = tail call float @llvm.fmuladd.f32(float %exp2f, float %1, float %6)
  ret float %7
}